; Function Attrs: null_pointer_is_valid sspstrong uwtable
define internal void @sslkeylist_uats_protocol_tostr_cb(ptr noundef readonly captures(none) %0, ptr noundef writeonly captures(none) initializes((0, 8)) %1, ptr noundef writeonly captures(none) initializes((0, 4)) %2, ptr readnone captures(none) %3, ptr readnone captures(none) %4) #0 {
  %6 = getelementptr inbounds nuw i8, ptr %0, i64 16
  %7 = load ptr, ptr %6, align 8
  %.not = icmp eq ptr %7, null
  br i1 %.not, label %13, label %8

8:                                                ; preds = %5
  %9 = tail call noalias ptr @g_strdup(ptr noundef nonnull %7)
  store ptr %9, ptr %1, align 8
  %10 = load ptr, ptr %6, align 8
  %11 = tail call i64 @strlen(ptr noundef %10) #12
  %12 = trunc i64 %11 to i32
  br label %15

13:                                               ; preds = %5
  %14 = tail call noalias ptr @g_strdup(ptr noundef nonnull @.str.922)
  store ptr %14, ptr %1, align 8
  br label %15

15:                                               ; preds = %13, %8
  %storemerge = phi i32 [ 0, %13 ], [ %12, %8 ]
  store i32 %storemerge, ptr %2, align 4
  ret void
}